; Function Attrs: nounwind uwtable
define internal i32 @activate(ptr noundef %0) #1 {
  %2 = alloca ptr, align 8
  %3 = alloca ptr, align 8
  %4 = alloca i32, align 4
  %5 = alloca i64, align 8
  %6 = getelementptr inbounds nuw i8, ptr %0, i64 32
  %7 = load ptr, ptr %6, align 8, !tbaa !4
  %8 = load ptr, ptr %7, align 8, !tbaa !20
  %9 = getelementptr inbounds nuw i8, ptr %0, i64 56
  %10 = load ptr, ptr %9, align 8, !tbaa !22
  %11 = load ptr, ptr %10, align 8, !tbaa !20
  %12 = getelementptr inbounds nuw i8, ptr %0, i64 72
  %13 = load ptr, ptr %12, align 8, !tbaa !23
  call void @llvm.lifetime.start.p0(i64 8, ptr nonnull %2) #3
  store ptr null, ptr %2, align 8, !tbaa !24
  call void @llvm.lifetime.start.p0(i64 8, ptr nonnull %3) #3
  %14 = tail call i32 @ff_outlink_get_status(ptr noundef %11) #3
  %.not = icmp eq i32 %14, 0
  br i1 %.not, label %.critedge, label %15

15:                                               ; preds = %1
  tail call void @ff_inlink_set_status(ptr noundef %8, i32 noundef %14) #3
  br label %86

.critedge:                                        ; preds = %1
  %16 = getelementptr inbounds nuw i8, ptr %0, i64 128
  %17 = load i32, ptr %16, align 8, !tbaa !26
  %.not42 = icmp eq i32 %17, 0
  br i1 %.not42, label %20, label %18

18:                                               ; preds = %.critedge
  %19 = call i32 @ff_inlink_consume_frame(ptr noundef %8, ptr noundef nonnull %2) #3
  br label %24

20:                                               ; preds = %.critedge
  %21 = getelementptr inbounds nuw i8, ptr %13, i64 8
  %22 = load i32, ptr %21, align 8, !tbaa !27
  %23 = call i32 @ff_inlink_consume_samples(ptr noundef %8, i32 noundef %22, i32 noundef %22, ptr noundef nonnull %2) #3
  br label %24

24:                                               ; preds = %20, %18
  %.037 = phi i32 [ %19, %18 ], [ %23, %20 ]
  %25 = icmp slt i32 %.037, 0
  br i1 %25, label %86, label %26

26:                                               ; preds = %24
  %.not43 = icmp eq i32 %.037, 0
  br i1 %.not43, label %74, label %27

27:                                               ; preds = %26
  %28 = getelementptr inbounds nuw i8, ptr %13, i64 12
  %29 = load i32, ptr %28, align 4, !tbaa !29
  %.not47 = icmp eq i32 %29, 0
  br i1 %.not47, label %._crit_edge, label %30

._crit_edge:                                      ; preds = %27
  %.pre = load ptr, ptr %2, align 8, !tbaa !24
  br label %38

30:                                               ; preds = %27
  %31 = load i32, ptr %16, align 8, !tbaa !26
  %.not48 = icmp eq i32 %31, 0
  %.pre52 = load ptr, ptr %2, align 8, !tbaa !24
  br i1 %.not48, label %32, label %38

32:                                               ; preds = %30
  %33 = getelementptr inbounds nuw i8, ptr %.pre52, i64 112
  %34 = load i32, ptr %33, align 8, !tbaa !30
  %35 = getelementptr inbounds nuw i8, ptr %13, i64 8
  %36 = load i32, ptr %35, align 8, !tbaa !27
  %37 = icmp eq i32 %34, %36
  br i1 %37, label %38, label %41

38:                                               ; preds = %._crit_edge, %32, %30
  %39 = phi ptr [ %.pre, %._crit_edge ], [ %.pre52, %32 ], [ %.pre52, %30 ]
  %40 = call i32 @ff_filter_frame(ptr noundef %11, ptr noundef %39) #3
  br label %86

41:                                               ; preds = %32
  %42 = call ptr @ff_get_audio_buffer(ptr noundef %11, i32 noundef %36) #3
  store ptr %42, ptr %3, align 8, !tbaa !24
  %.not49 = icmp eq ptr %42, null
  br i1 %.not49, label %43, label %44

43:                                               ; preds = %41
  call void @av_frame_free(ptr noundef nonnull %2) #3
  br label %86

44:                                               ; preds = %41
  %45 = load ptr, ptr %2, align 8, !tbaa !24
  %46 = call i32 @av_frame_copy_props(ptr noundef nonnull %42, ptr noundef %45) #3
  %47 = icmp slt i32 %46, 0
  br i1 %47, label %48, label %49

48:                                               ; preds = %44
  call void @av_frame_free(ptr noundef nonnull %3) #3
  call void @av_frame_free(ptr noundef nonnull %2) #3
  br label %86

49:                                               ; preds = %44
  %50 = getelementptr inbounds nuw i8, ptr %42, i64 96
  %51 = load ptr, ptr %50, align 8, !tbaa !39
  %52 = load ptr, ptr %2, align 8, !tbaa !24
  %53 = getelementptr inbounds nuw i8, ptr %52, i64 96
  %54 = load ptr, ptr %53, align 8, !tbaa !39
  %55 = getelementptr inbounds nuw i8, ptr %52, i64 112
  %56 = load i32, ptr %55, align 8, !tbaa !30
  %57 = getelementptr inbounds nuw i8, ptr %52, i64 388
  %58 = load i32, ptr %57, align 4, !tbaa !40
  %59 = getelementptr inbounds nuw i8, ptr %52, i64 116
  %60 = load i32, ptr %59, align 4, !tbaa !41
  %61 = call i32 @av_samples_copy(ptr noundef %51, ptr noundef %54, i32 noundef 0, i32 noundef 0, i32 noundef %56, i32 noundef %58, i32 noundef %60) #3
  %62 = load ptr, ptr %50, align 8, !tbaa !39
  %63 = load ptr, ptr %2, align 8, !tbaa !24
  %64 = getelementptr inbounds nuw i8, ptr %63, i64 112
  %65 = load i32, ptr %64, align 8, !tbaa !30
  %66 = load i32, ptr %35, align 8, !tbaa !27
  %67 = sub nsw i32 %66, %65
  %68 = getelementptr inbounds nuw i8, ptr %63, i64 388
  %69 = load i32, ptr %68, align 4, !tbaa !40
  %70 = getelementptr inbounds nuw i8, ptr %63, i64 116
  %71 = load i32, ptr %70, align 4, !tbaa !41
  %72 = call i32 @av_samples_set_silence(ptr noundef %62, i32 noundef %65, i32 noundef %67, i32 noundef %69, i32 noundef %71) #3
  call void @av_frame_free(ptr noundef nonnull %2) #3
  %73 = call i32 @ff_filter_frame(ptr noundef %11, ptr noundef nonnull %42) #3
  br label %86

74:                                               ; preds = %26
  call void @llvm.lifetime.start.p0(i64 4, ptr nonnull %4) #3
  call void @llvm.lifetime.start.p0(i64 8, ptr nonnull %5) #3
  %75 = call i32 @ff_inlink_acknowledge_status(ptr noundef %8, ptr noundef nonnull %4, ptr noundef nonnull %5) #3
  %.not44 = icmp eq i32 %75, 0
  br i1 %.not44, label %.critedge51, label %76

76:                                               ; preds = %74
  %77 = load i32, ptr %4, align 4, !tbaa !42
  %78 = load i64, ptr %5, align 8, !tbaa !43
  call void @ff_avfilter_link_set_in_status(ptr noundef %11, i32 noundef %77, i64 noundef %78) #3
  call void @llvm.lifetime.end.p0(i64 8, ptr nonnull %5) #3
  call void @llvm.lifetime.end.p0(i64 4, ptr nonnull %4) #3
  br label %86

.critedge51:                                      ; preds = %74
  call void @llvm.lifetime.end.p0(i64 8, ptr nonnull %5) #3
  call void @llvm.lifetime.end.p0(i64 4, ptr nonnull %4) #3
  %79 = call i32 @ff_inlink_queued_samples(ptr noundef %8) #3
  %80 = getelementptr inbounds nuw i8, ptr %13, i64 8
  %81 = load i32, ptr %80, align 8, !tbaa !27
  %.not45 = icmp slt i32 %79, %81
  br i1 %.not45, label %83, label %82

82:                                               ; preds = %.critedge51
  call void @ff_filter_set_ready(ptr noundef nonnull %0, i32 noundef 100) #3
  br label %86

83:                                               ; preds = %.critedge51
  %84 = call i32 @ff_outlink_frame_wanted(ptr noundef %11) #3
  %.not46 = icmp eq i32 %84, 0
  br i1 %.not46, label %86, label %85

85:                                               ; preds = %83
  call void @ff_inlink_request_frame(ptr noundef %8) #3
  br label %86

86:                                               ; preds = %76, %15, %83, %24, %85, %82, %49, %48, %43, %38
  %.136 = phi i32 [ %40, %38 ], [ %46, %48 ], [ %73, %49 ], [ -12, %43 ], [ 0, %82 ], [ 0, %85 ], [ 0, %76 ], [ 0, %15 ], [ %.037, %24 ], [ -1497649742, %83 ]
  call void @llvm.lifetime.end.p0(i64 8, ptr nonnull %3) #3
  call void @llvm.lifetime.end.p0(i64 8, ptr nonnull %2) #3
  ret i32 %.136
}